target datalayout = "e-m:e-p270:32:32-p271:32:32-p272:64:64-i64:64-i128:128-f80:128-n8:16:32:64-S128"
target triple = "x86_64-pc-linux-gnu"

%struct.sbg_script = type { ptr, ptr, ptr, ptr, ptr, i32, i32, i32, i32, i64, i64, i64, i64, ptr, i32, i8, i8 }
%struct.AVProbeData = type { ptr, ptr, i32, ptr }

; Function Attrs: cold nounwind optsize uwtable
define internal i32 @sbg_read_probe(ptr noundef %0) #0 {
  %2 = alloca ptr, align 8
  %3 = alloca i32, align 4
  %4 = alloca i32, align 4
  %5 = alloca %struct.sbg_script, align 8
  store ptr %0, ptr %2, align 8, !tbaa !4
  call void @llvm.lifetime.start.p0(i64 4, ptr %3) #13
  call void @llvm.lifetime.start.p0(i64 4, ptr %4) #13
  call void @llvm.lifetime.start.p0(i64 104, ptr %5) #13
  call void @llvm.memset.p0.i64(ptr align 8 %5, i8 0, i64 104, i1 false)
  %6 = load ptr, ptr %2, align 8, !tbaa !4
  %7 = getelementptr inbounds nuw %struct.AVProbeData, ptr %6, i32 0, i32 1
  %8 = load ptr, ptr %7, align 8, !tbaa !9
  %9 = load ptr, ptr %2, align 8, !tbaa !4
  %10 = getelementptr inbounds nuw %struct.AVProbeData, ptr %9, i32 0, i32 2
  %11 = load i32, ptr %10, align 8, !tbaa !13
  %12 = call i32 @parse_script(ptr noundef null, ptr noundef %8, i32 noundef %11, ptr noundef %5)
  store i32 %12, ptr %3, align 4, !tbaa !14
  %13 = load i32, ptr %3, align 4, !tbaa !14
  %14 = icmp slt i32 %13, 0
  br i1 %14, label %24, label %15

15:                                               ; preds = %1
  %16 = getelementptr inbounds nuw %struct.sbg_script, ptr %5, i32 0, i32 5
  %17 = load i32, ptr %16, align 8, !tbaa !15
  %18 = icmp ne i32 %17, 0
  br i1 %18, label %19, label %24

19:                                               ; preds = %15
  %20 = getelementptr inbounds nuw %struct.sbg_script, ptr %5, i32 0, i32 6
  %21 = load i32, ptr %20, align 4, !tbaa !22
  %22 = icmp ne i32 %21, 0
  %23 = xor i1 %22, true
  br label %24

24:                                               ; preds = %19, %15, %1
  %25 = phi i1 [ true, %15 ], [ true, %1 ], [ %23, %19 ]
  %26 = select i1 %25, i32 0, i32 33
  store i32 %26, ptr %4, align 4, !tbaa !14
  call void @free_script(ptr noundef %5)
  %27 = load i32, ptr %4, align 4, !tbaa !14
  call void @llvm.lifetime.end.p0(i64 104, ptr %5) #13
  call void @llvm.lifetime.end.p0(i64 4, ptr %4) #13
  call void @llvm.lifetime.end.p0(i64 4, ptr %3) #13
  ret i32 %27
}