; Function Attrs: cold nounwind optsize uwtable
define internal range(i32 0, 34) i32 @sbg_read_probe(ptr noundef readonly captures(none) %0) #0 {
  %2 = alloca %struct.sbg_script, align 8
  call void @llvm.lifetime.start.p0(i64 104, ptr nonnull %2) #16
  call void @llvm.memset.p0.i64(ptr noundef nonnull align 8 dereferenceable(104) %2, i8 0, i64 104, i1 false)
  %3 = getelementptr inbounds nuw i8, ptr %0, i64 8
  %4 = load ptr, ptr %3, align 8, !tbaa !4
  %5 = getelementptr inbounds nuw i8, ptr %0, i64 16
  %6 = load i32, ptr %5, align 8, !tbaa !11
  %7 = call fastcc i32 @parse_script(ptr noundef null, ptr noundef %4, i32 noundef %6, ptr noundef %2)
  %8 = icmp slt i32 %7, 0
  %9 = getelementptr inbounds nuw i8, ptr %2, i64 40
  %10 = load i32, ptr %9, align 8
  %11 = icmp eq i32 %10, 0
  %or.cond.not = select i1 %8, i1 true, i1 %11
  %12 = getelementptr inbounds nuw i8, ptr %2, i64 44
  %13 = load i32, ptr %12, align 4
  %.not = icmp eq i32 %13, 0
  %14 = select i1 %or.cond.not, i1 true, i1 %.not
  %15 = select i1 %14, i32 0, i32 33
  call fastcc void @free_script(ptr noundef %2)
  call void @llvm.lifetime.end.p0(i64 104, ptr nonnull %2) #16
  ret i32 %15
}